target datalayout = "e-m:e-p270:32:32-p271:32:32-p272:64:64-i64:64-i128:128-f80:128-n8:16:32:64-S128"
target triple = "x86_64-pc-linux-gnu"

@.str.3 = private unnamed_addr constant [7 x i8] c"date.c\00", align 1
@.str.10 = private unnamed_addr constant [10 x i8] c"-infinity\00", align 1
@.str.11 = private unnamed_addr constant [9 x i8] c"infinity\00", align 1
@.str.12 = private unnamed_addr constant [39 x i8] c"invalid argument for EncodeSpecialDate\00", align 1
@__func__.EncodeSpecialDate = private unnamed_addr constant [18 x i8] c"EncodeSpecialDate\00", align 1

; Function Attrs: nounwind uwtable
define dso_local void @EncodeSpecialDate(i32 noundef %0, ptr noundef %1) #0 {
  %3 = alloca i32, align 4
  %4 = alloca ptr, align 8
  store i32 %0, ptr %3, align 4
  store ptr %1, ptr %4, align 8
  %5 = load i32, ptr %3, align 4
  %6 = icmp eq i32 %5, -2147483648
  br i1 %6, label %7, label %10

7:                                                ; preds = %2
  %8 = load ptr, ptr %4, align 8
  %9 = call ptr @strcpy(ptr noundef %8, ptr noundef @.str.10) #9
  br label %27

10:                                               ; preds = %2
  %11 = load i32, ptr %3, align 4
  %12 = icmp eq i32 %11, 2147483647
  br i1 %12, label %13, label %16

13:                                               ; preds = %10
  %14 = load ptr, ptr %4, align 8
  %15 = call ptr @strcpy(ptr noundef %14, ptr noundef @.str.11) #9
  br label %26

16:                                               ; preds = %10
  br label %17

17:                                               ; preds = %16
  br i1 true, label %18, label %20

18:                                               ; preds = %17
  %19 = call zeroext i1 @errstart_cold(i32 noundef 21, ptr noundef null) #8
  br i1 %19, label %22, label %24

20:                                               ; preds = %17
  %21 = call zeroext i1 @errstart(i32 noundef 21, ptr noundef null)
  br i1 %21, label %22, label %24

22:                                               ; preds = %20, %18
  %23 = call i32 (ptr, ...) @errmsg_internal(ptr noundef @.str.12)
  call void @errfinish(ptr noundef @.str.3, i32 noundef 308, ptr noundef @__func__.EncodeSpecialDate)
  br label %24

24:                                               ; preds = %22, %20, %18
  unreachable

25:                                               ; No predecessors!
  br label %26

26:                                               ; preds = %25, %13
  br label %27

27:                                               ; preds = %26, %7
  ret void
}