; Function Attrs: nounwind uwtable
define dso_local void @EncodeSpecialDate(i32 noundef %0, ptr noundef writeonly captures(none) %1) local_unnamed_addr #0 {
  switch i32 %0, label %5 [
    i32 -2147483648, label %3
    i32 2147483647, label %4
  ]

3:                                                ; preds = %2
  tail call void @llvm.memcpy.p0.p0.i64(ptr noundef nonnull align 1 dereferenceable(10) %1, ptr noundef nonnull align 1 dereferenceable(10) @.str.10, i64 10, i1 false) #16
  br label %8

4:                                                ; preds = %2
  tail call void @llvm.memcpy.p0.p0.i64(ptr noundef nonnull align 1 dereferenceable(9) %1, ptr noundef nonnull align 1 dereferenceable(9) @.str.11, i64 9, i1 false) #16
  br label %8

5:                                                ; preds = %2
  %6 = tail call zeroext i1 @errstart_cold(i32 noundef 21, ptr noundef null) #15
  tail call void @llvm.assume(i1 %6)
  %7 = tail call i32 (ptr, ...) @errmsg_internal(ptr noundef nonnull @.str.12) #16
  tail call void @errfinish(ptr noundef nonnull @.str.3, i32 noundef 308, ptr noundef nonnull @__func__.EncodeSpecialDate) #16
  unreachable

8:                                                ; preds = %4, %3
  ret void
}